Certificate:
    Data:
        Version: 3 (0x2)
        Serial Number: 1164413188 (0x45678904)
        Signature Algorithm: sha1WithRSAEncryption
        Issuer: C=PT, ST=Some-State, O=Universidade do Minho, OU=HASLab, CN=CA Grupo 27715
        Validity
            Not Before: Apr 13 11:04:07 2015 GMT
            Not After : Apr 12 11:04:07 2016 GMT
        Subject: C=PT, ST=Some-State, O=Universidade do Minho, OU=HASLab, CN=Duarte Duarte/emailAddress=duartenuno1992@gmail.com
        Subject Public Key Info:
            Public Key Algorithm: rsaEncryption
            RSA Public Key: (1024 bit)
                Modulus (1024 bit):
                    00:cb:42:23:ea:41:36:54:3f:9b:cd:6d:6d:53:14:
                    f7:15:f6:6b:93:a3:85:a8:1d:de:0a:1e:c0:82:60:
                    bf:51:f0:1d:0c:4a:49:13:b5:5a:12:0a:36:3a:7b:
                    ee:e2:e6:24:4e:ca:a7:49:f2:3d:5f:35:c9:1a:a2:
                    04:e5:3f:29:0a:53:e6:3a:1f:7f:cb:ca:ee:c4:3f:
                    c3:ae:3c:cd:56:47:9c:f2:9c:25:24:1e:2b:b8:ba:
                    71:0e:d8:db:e9:11:e3:83:89:44:db:c8:6f:69:af:
                    56:3b:26:ac:7a:ec:d3:70:54:ca:9a:dd:fd:6f:af:
                    9d:05:0d:4c:e7:58:9c:ad:35
                Exponent: 65537 (0x10001)
        X509v3 extensions:
            X509v3 Basic Constraints: 
                CA:FALSE
            Netscape Comment: 
                OpenSSL Generated Certificate
            X509v3 Subject Key Identifier: 
                80:E8:FC:64:FB:62:5E:9A:8B:D3:AF:E0:64:55:67:D2:F7:B1:0D:8A
            X509v3 Authority Key Identifier: 
                keyid:88:4B:76:A9:7F:A7:6A:D0:12:81:2B:5C:71:47:F3:98:AE:45:3B:4F

    Signature Algorithm: sha1WithRSAEncryption
        9f:46:00:d7:5a:77:24:25:fc:72:57:c2:a5:7c:5f:92:a1:03:
        2f:99:f9:f0:a0:34:b1:53:27:72:98:b8:3b:5d:fa:63:93:04:
        00:16:21:4b:d6:5b:82:60:cc:14:15:55:5d:d8:0e:b3:94:5b:
        2c:6d:47:c9:36:f3:03:89:1a:d5:e3:88:ab:84:c8:dc:cf:13:
        73:ac:bb:b2:9b:c0:85:50:2b:b6:24:7b:e0:f1:1d:3d:3b:71:
        25:48:4f:92:05:02:4f:1c:c1:2f:a2:e9:a9:13:24:e1:62:06:
        cc:63:d8:0d:66:ff:6c:dd:3b:fc:c5:19:cd:43:83:c3:3e:af:
        8f:29
-----BEGIN CERTIFICATE-----
MIIC9TCCAl6gAwIBAgIERWeJBDANBgkqhkiG9w0BAQUFADBsMQswCQYDVQQGEwJQ
VDETMBEGA1UECBMKU29tZS1TdGF0ZTEeMBwGA1UEChMVVW5pdmVyc2lkYWRlIGRv
IE1pbmhvMQ8wDQYDVQQLEwZIQVNMYWIxFzAVBgNVBAMTDkNBIEdydXBvIDI3NzE1
MB4XDTE1MDQxMzExMDQwN1oXDTE2MDQxMjExMDQwN1owgZQxCzAJBgNVBAYTAlBU
MRMwEQYDVQQIEwpTb21lLVN0YXRlMR4wHAYDVQQKExVVbml2ZXJzaWRhZGUgZG8g
TWluaG8xDzANBgNVBAsTBkhBU0xhYjEWMBQGA1UEAxMNRHVhcnRlIER1YXJ0ZTEn
MCUGCSqGSIb3DQEJARYYZHVhcnRlbnVubzE5OTJAZ21haWwuY29tMIGfMA0GCSqG
SIb3DQEBAQUAA4GNADCBiQKBgQDLQiPqQTZUP5vNbW1TFPcV9muTo4WoHd4KHsCC
YL9R8B0MSkkTtVoSCjY6e+7i5iROyqdJ8j1fNckaogTlPykKU+Y6H3/Lyu7EP8Ou
PM1WR5zynCUkHiu4unEO2NvpEeODiUTbyG9pr1Y7Jqx67NNwVMqa3f1vr50FDUzn
WJytNQIDAQABo3sweTAJBgNVHRMEAjAAMCwGCWCGSAGG+EIBDQQfFh1PcGVuU1NM
IEdlbmVyYXRlZCBDZXJ0aWZpY2F0ZTAdBgNVHQ4EFgQUgOj8ZPtiXpqL06/gZFVn
0vexDYowHwYDVR0jBBgwFoAUiEt2qX+natASgStccUfzmK5FO08wDQYJKoZIhvcN
AQEFBQADgYEAn0YA11p3JCX8clfCpXxfkqEDL5n58KA0sVMncpi4O136Y5MEABYh
S9ZbgmDMFBVVXdgOs5RbLG1HyTbzA4ka1eOIq4TI3M8Tc6y7spvAhVArtiR74PEd
PTtxJUhPkgUCTxzBL6LpqRMk4WIGzGPYDWb/bN07/MUZzUODwz6vjyk=
-----END CERTIFICATE-----
