Certificate:
    Data:
        Version: 3 (0x2)
        Serial Number: 1164413194 (0x4567890a)
        Signature Algorithm: sha1WithRSAEncryption
        Issuer: C=PT, ST=Some-State, O=Universidade do Minho, OU=HASLab, CN=CA Grupo 27715
        Validity
            Not Before: May 23 17:33:39 2015 GMT
            Not After : May 22 17:33:39 2016 GMT
        Subject: C=PT, ST=Braga, L=Braga, O=BananaCorp, OU=Servers, CN=Server/emailAddress=server@bananacorp.org
        Subject Public Key Info:
            Public Key Algorithm: rsaEncryption
            RSA Public Key: (1024 bit)
                Modulus (1024 bit):
                    00:e2:44:1d:94:f7:c8:2c:75:94:55:2c:c6:7a:7d:
                    3d:28:67:9a:de:85:53:46:39:f1:2e:20:4b:12:38:
                    ab:51:c2:87:25:5b:68:e6:64:94:2d:d8:bf:ee:ec:
                    73:78:d6:3a:2f:76:62:e6:24:00:f9:fc:04:09:51:
                    d0:b8:6a:89:8a:11:de:4c:82:b6:bc:f6:97:45:cb:
                    fa:91:b0:2f:6e:25:a1:2c:bb:6a:b1:fd:b2:72:7b:
                    d1:0e:4e:ef:a8:b9:17:2d:59:6e:5d:b1:30:97:c8:
                    52:64:5c:eb:38:ea:d0:7c:c4:15:51:9a:0c:36:9f:
                    b2:da:23:14:7b:d3:78:b6:db
                Exponent: 65537 (0x10001)
        X509v3 extensions:
            X509v3 Basic Constraints: 
                CA:FALSE
            Netscape Comment: 
                OpenSSL Generated Certificate
            X509v3 Subject Key Identifier: 
                2B:96:98:D6:5D:52:0C:B6:36:3B:1C:E3:49:6B:07:F1:85:F4:AA:67
            X509v3 Authority Key Identifier: 
                keyid:88:4B:76:A9:7F:A7:6A:D0:12:81:2B:5C:71:47:F3:98:AE:45:3B:4F

    Signature Algorithm: sha1WithRSAEncryption
        76:39:56:9e:74:59:06:84:53:d1:cd:09:77:ec:63:d4:93:ba:
        b8:36:a3:51:29:8f:e1:79:ed:9f:45:a8:12:2a:be:2c:1e:ac:
        31:da:62:19:3b:40:58:42:03:44:9d:6c:7b:45:5f:2d:20:f7:
        83:68:44:ce:f5:b7:77:1c:8b:97:9a:d0:59:e6:7a:97:c4:8f:
        8b:32:92:87:ea:c2:ff:bb:00:75:5c:f9:1f:fc:6c:50:d4:53:
        36:9f:f3:68:f1:92:f5:62:50:7c:aa:65:3a:10:95:81:3a:c5:
        f1:9b:67:6e:2e:39:70:d3:95:5a:6b:2e:87:fd:6e:67:a2:d9:
        d1:44
-----BEGIN CERTIFICATE-----
MIIC7DCCAlWgAwIBAgIERWeJCjANBgkqhkiG9w0BAQUFADBsMQswCQYDVQQGEwJQ
VDETMBEGA1UECBMKU29tZS1TdGF0ZTEeMBwGA1UEChMVVW5pdmVyc2lkYWRlIGRv
IE1pbmhvMQ8wDQYDVQQLEwZIQVNMYWIxFzAVBgNVBAMTDkNBIEdydXBvIDI3NzE1
MB4XDTE1MDUyMzE3MzMzOVoXDTE2MDUyMjE3MzMzOVowgYsxCzAJBgNVBAYTAlBU
MQ4wDAYDVQQIEwVCcmFnYTEOMAwGA1UEBxMFQnJhZ2ExEzARBgNVBAoTCkJhbmFu
YUNvcnAxEDAOBgNVBAsTB1NlcnZlcnMxDzANBgNVBAMTBlNlcnZlcjEkMCIGCSqG
SIb3DQEJARYVc2VydmVyQGJhbmFuYWNvcnAub3JnMIGfMA0GCSqGSIb3DQEBAQUA
A4GNADCBiQKBgQDiRB2U98gsdZRVLMZ6fT0oZ5rehVNGOfEuIEsSOKtRwoclW2jm
ZJQt2L/u7HN41jovdmLmJAD5/AQJUdC4aomKEd5Mgra89pdFy/qRsC9uJaEsu2qx
/bJye9EOTu+ouRctWW5dsTCXyFJkXOs46tB8xBVRmgw2n7LaIxR703i22wIDAQAB
o3sweTAJBgNVHRMEAjAAMCwGCWCGSAGG+EIBDQQfFh1PcGVuU1NMIEdlbmVyYXRl
ZCBDZXJ0aWZpY2F0ZTAdBgNVHQ4EFgQUK5aY1l1SDLY2OxzjSWsH8YX0qmcwHwYD
VR0jBBgwFoAUiEt2qX+natASgStccUfzmK5FO08wDQYJKoZIhvcNAQEFBQADgYEA
djlWnnRZBoRT0c0Jd+xj1JO6uDajUSmP4Xntn0WoEiq+LB6sMdpiGTtAWEIDRJ1s
e0VfLSD3g2hEzvW3dxyLl5rQWeZ6l8SPizKSh+rC/7sAdVz5H/xsUNRTNp/zaPGS
9WJQfKplOhCVgTrF8Ztnbi45cNOVWmsuh/1uZ6LZ0UQ=
-----END CERTIFICATE-----
