Certificate:
    Data:
        Version: 3 (0x2)
        Serial Number: 1164413189 (0x45678905)
        Signature Algorithm: sha1WithRSAEncryption
        Issuer: C=PT, ST=Some-State, O=Universidade do Minho, OU=HASLab, CN=CA Grupo 27715
        Validity
            Not Before: Apr 28 21:20:09 2015 GMT
            Not After : Apr 27 21:20:09 2016 GMT
        Subject: C=PT, ST=Braga, L=Braga, O=BananaCorp, OU=SSI, CN=duknust.com
        Subject Public Key Info:
            Public Key Algorithm: rsaEncryption
            RSA Public Key: (1024 bit)
                Modulus (1024 bit):
                    00:e2:d5:5b:28:64:2d:6a:32:92:5c:f0:0d:41:a9:
                    36:87:78:71:d5:77:ba:1c:30:00:00:25:1d:9c:55:
                    31:85:c1:50:4f:61:3c:c4:5b:fb:7f:18:8e:3b:13:
                    cc:d8:12:7c:2b:93:51:51:80:d9:e4:02:88:53:aa:
                    9a:08:20:f1:5e:5b:a7:bc:d0:40:36:f2:35:75:07:
                    24:52:16:4c:85:fe:f4:c8:e8:7a:89:25:04:7b:61:
                    1d:db:29:7a:9f:02:92:ce:11:26:3d:2f:c9:ec:20:
                    5f:8c:0b:11:66:6c:56:54:d8:2c:d3:93:b1:f5:0f:
                    5a:df:1b:ed:9c:58:04:4a:1d
                Exponent: 65537 (0x10001)
        X509v3 extensions:
            X509v3 Basic Constraints: 
                CA:FALSE
            Netscape Comment: 
                OpenSSL Generated Certificate
            X509v3 Subject Key Identifier: 
                5F:AA:26:CD:A7:7E:D5:D4:55:41:13:2C:15:B1:B2:46:FA:53:E6:ED
            X509v3 Authority Key Identifier: 
                keyid:88:4B:76:A9:7F:A7:6A:D0:12:81:2B:5C:71:47:F3:98:AE:45:3B:4F

    Signature Algorithm: sha1WithRSAEncryption
        64:82:4d:75:ad:64:30:a3:0e:ee:96:e6:c7:d8:c2:e3:0e:6c:
        b0:86:a0:a2:d9:cf:be:52:db:80:89:8f:82:b5:b2:6b:ee:34:
        31:60:67:a6:ae:e5:43:2d:f4:e9:30:80:e9:94:30:11:1d:e5:
        f3:c4:e8:b0:01:95:0e:7f:da:89:7a:c1:84:e8:de:c9:ce:34:
        56:ff:a4:03:0b:17:c2:12:8f:e2:16:99:85:70:30:e9:5c:9b:
        39:da:91:b6:33:75:c1:95:bd:f3:5d:66:c9:65:87:0a:cc:ea:
        90:aa:c0:62:48:5a:c5:1e:dc:1a:3e:e9:0d:3b:9c:88:45:cf:
        17:e8
-----BEGIN CERTIFICATE-----
MIICxjCCAi+gAwIBAgIERWeJBTANBgkqhkiG9w0BAQUFADBsMQswCQYDVQQGEwJQ
VDETMBEGA1UECBMKU29tZS1TdGF0ZTEeMBwGA1UEChMVVW5pdmVyc2lkYWRlIGRv
IE1pbmhvMQ8wDQYDVQQLEwZIQVNMYWIxFzAVBgNVBAMTDkNBIEdydXBvIDI3NzE1
MB4XDTE1MDQyODIxMjAwOVoXDTE2MDQyNzIxMjAwOVowZjELMAkGA1UEBhMCUFQx
DjAMBgNVBAgTBUJyYWdhMQ4wDAYDVQQHEwVCcmFnYTETMBEGA1UEChMKQmFuYW5h
Q29ycDEMMAoGA1UECxMDU1NJMRQwEgYDVQQDEwtkdWtudXN0LmNvbTCBnzANBgkq
hkiG9w0BAQEFAAOBjQAwgYkCgYEA4tVbKGQtajKSXPANQak2h3hx1Xe6HDAAACUd
nFUxhcFQT2E8xFv7fxiOOxPM2BJ8K5NRUYDZ5AKIU6qaCCDxXlunvNBANvI1dQck
UhZMhf70yOh6iSUEe2Ed2yl6nwKSzhEmPS/J7CBfjAsRZmxWVNgs05Ox9Q9a3xvt
nFgESh0CAwEAAaN7MHkwCQYDVR0TBAIwADAsBglghkgBhvhCAQ0EHxYdT3BlblNT
TCBHZW5lcmF0ZWQgQ2VydGlmaWNhdGUwHQYDVR0OBBYEFF+qJs2nftXUVUETLBWx
skb6U+btMB8GA1UdIwQYMBaAFIhLdql/p2rQEoErXHFH85iuRTtPMA0GCSqGSIb3
DQEBBQUAA4GBAGSCTXWtZDCjDu6W5sfYwuMObLCGoKLZz75S24CJj4K1smvuNDFg
Z6au5UMt9OkwgOmUMBEd5fPE6LABlQ5/2ol6wYTo3snONFb/pAMLF8ISj+IWmYVw
MOlcmznakbYzdcGVvfNdZsllhwrM6pCqwGJIWsUe3Bo+6Q07nIhFzxfo
-----END CERTIFICATE-----
