Certificate:
    Data:
        Version: 3 (0x2)
        Serial Number: 1164413191 (0x45678907)
        Signature Algorithm: sha1WithRSAEncryption
        Issuer: C=PT, ST=Some-State, O=Universidade do Minho, OU=HASLab, CN=CA Grupo 27715
        Validity
            Not Before: May 19 22:02:32 2015 GMT
            Not After : May 18 22:02:32 2016 GMT
        Subject: C=PT, ST=Braga, L=Braga, O=BananaCorp, OU=Servers, CN=BananaStarterServer/emailAddress=starter@bananacorp.org
        Subject Public Key Info:
            Public Key Algorithm: rsaEncryption
            RSA Public Key: (1024 bit)
                Modulus (1024 bit):
                    00:eb:2b:7e:12:bc:01:82:44:a0:43:54:ba:e5:c9:
                    41:3a:c3:80:1a:33:e1:10:cc:88:68:9f:08:75:b2:
                    53:3d:59:04:55:1c:2e:cc:87:72:23:38:fe:c4:e9:
                    44:71:b0:8b:70:cb:49:01:a4:0c:b3:67:82:a3:a2:
                    f9:08:c7:07:07:45:e9:1d:7f:41:68:27:61:bb:28:
                    5d:af:58:66:b9:46:3e:d5:b7:38:a4:9c:16:28:c3:
                    fa:de:f8:a6:f7:18:ab:2d:06:33:f2:30:8b:b2:ee:
                    f8:3e:fc:64:2e:46:06:30:e1:a7:6c:5f:26:c2:dd:
                    8a:10:71:df:1a:f8:30:d9:c5
                Exponent: 65537 (0x10001)
        X509v3 extensions:
            X509v3 Basic Constraints: 
                CA:FALSE
            Netscape Comment: 
                OpenSSL Generated Certificate
            X509v3 Subject Key Identifier: 
                F7:1F:B9:11:D1:6A:20:98:EB:4B:98:E8:6B:8F:F1:6B:2D:33:6E:16
            X509v3 Authority Key Identifier: 
                keyid:88:4B:76:A9:7F:A7:6A:D0:12:81:2B:5C:71:47:F3:98:AE:45:3B:4F

    Signature Algorithm: sha1WithRSAEncryption
        01:d5:b2:ff:bf:a8:2e:f0:58:46:f2:db:9e:94:b5:c5:4c:ad:
        80:69:fc:1b:c2:1d:4c:88:77:1f:ab:32:9c:9d:1c:9e:1b:88:
        43:78:4b:bd:5e:74:8e:c3:6d:96:34:e3:58:9c:e4:b0:68:c2:
        4b:ce:8e:2c:5a:6a:66:82:56:86:ab:e4:03:2d:f0:c6:d6:81:
        43:2e:3c:f3:cf:d0:a0:3e:24:fd:11:46:ed:2f:3f:43:a9:72:
        32:8c:fb:0f:c9:a4:a3:8a:c6:a5:f4:89:79:42:d9:86:d4:44:
        be:52:68:aa:15:85:b1:b5:d2:a3:33:47:11:d5:8d:cc:fe:c0:
        97:d2
-----BEGIN CERTIFICATE-----
MIIC+jCCAmOgAwIBAgIERWeJBzANBgkqhkiG9w0BAQUFADBsMQswCQYDVQQGEwJQ
VDETMBEGA1UECBMKU29tZS1TdGF0ZTEeMBwGA1UEChMVVW5pdmVyc2lkYWRlIGRv
IE1pbmhvMQ8wDQYDVQQLEwZIQVNMYWIxFzAVBgNVBAMTDkNBIEdydXBvIDI3NzE1
MB4XDTE1MDUxOTIyMDIzMloXDTE2MDUxODIyMDIzMlowgZkxCzAJBgNVBAYTAlBU
MQ4wDAYDVQQIEwVCcmFnYTEOMAwGA1UEBxMFQnJhZ2ExEzARBgNVBAoTCkJhbmFu
YUNvcnAxEDAOBgNVBAsTB1NlcnZlcnMxHDAaBgNVBAMTE0JhbmFuYVN0YXJ0ZXJT
ZXJ2ZXIxJTAjBgkqhkiG9w0BCQEWFnN0YXJ0ZXJAYmFuYW5hY29ycC5vcmcwgZ8w
DQYJKoZIhvcNAQEBBQADgY0AMIGJAoGBAOsrfhK8AYJEoENUuuXJQTrDgBoz4RDM
iGifCHWyUz1ZBFUcLsyHciM4/sTpRHGwi3DLSQGkDLNngqOi+QjHBwdF6R1/QWgn
YbsoXa9YZrlGPtW3OKScFijD+t74pvcYqy0GM/Iwi7Lu+D78ZC5GBjDhp2xfJsLd
ihBx3xr4MNnFAgMBAAGjezB5MAkGA1UdEwQCMAAwLAYJYIZIAYb4QgENBB8WHU9w
ZW5TU0wgR2VuZXJhdGVkIENlcnRpZmljYXRlMB0GA1UdDgQWBBT3H7kR0WogmOtL
mOhrj/FrLTNuFjAfBgNVHSMEGDAWgBSIS3apf6dq0BKBK1xxR/OYrkU7TzANBgkq
hkiG9w0BAQUFAAOBgQAB1bL/v6gu8FhG8tuelLXFTK2Aafwbwh1MiHcfqzKcnRye
G4hDeEu9XnSOw22WNONYnOSwaMJLzo4sWmpmglaGq+QDLfDG1oFDLjzzz9CgPiT9
EUbtLz9DqXIyjPsPyaSjisal9Il5QtmG1ES+UmiqFYWxtdKjM0cR1Y3M/sCX0g==
-----END CERTIFICATE-----
