Certificate:
    Data:
        Version: 3 (0x2)
        Serial Number: 1164413192 (0x45678908)
        Signature Algorithm: sha1WithRSAEncryption
        Issuer: C=PT, ST=Some-State, O=Universidade do Minho, OU=HASLab, CN=CA Grupo 27715
        Validity
            Not Before: May 23 17:05:27 2015 GMT
            Not After : May 22 17:05:27 2016 GMT
        Subject: C=PT, ST=Braga, L=Braga, O=BananaCorp, OU=Clients, CN=Mr.Client1/emailAddress=client1@microsoft.com
        Subject Public Key Info:
            Public Key Algorithm: rsaEncryption
            RSA Public Key: (1024 bit)
                Modulus (1024 bit):
                    00:bf:57:45:9a:87:0f:6f:07:54:d8:36:19:0e:5c:
                    95:b3:9d:ac:14:dd:21:6d:12:64:f7:ac:19:4d:de:
                    b5:2b:bf:d2:f0:6b:c9:29:d6:fe:3d:e9:98:9d:e6:
                    7d:e1:05:20:65:1e:5b:43:65:51:02:e8:9d:47:a9:
                    fa:96:1f:6c:9f:59:32:bb:27:df:d4:cd:5b:ea:b9:
                    0b:7a:34:64:04:8e:35:17:56:d6:1c:30:aa:ea:3f:
                    05:9d:82:b7:95:0b:31:74:a8:1e:61:ad:27:55:ec:
                    ac:06:5b:e0:6c:b1:85:57:f3:92:10:2a:71:3b:07:
                    ff:a3:a8:d1:36:56:1c:52:99
                Exponent: 65537 (0x10001)
        X509v3 extensions:
            X509v3 Basic Constraints: 
                CA:FALSE
            Netscape Comment: 
                OpenSSL Generated Certificate
            X509v3 Subject Key Identifier: 
                6D:53:71:3D:D2:8A:1D:76:27:A5:10:01:EE:3D:74:D5:E7:B6:EF:13
            X509v3 Authority Key Identifier: 
                keyid:88:4B:76:A9:7F:A7:6A:D0:12:81:2B:5C:71:47:F3:98:AE:45:3B:4F

    Signature Algorithm: sha1WithRSAEncryption
        36:65:df:83:d0:83:62:e7:9b:79:73:03:44:3b:fe:21:73:43:
        bd:3d:da:de:f3:0d:d1:1d:00:66:d5:dd:4b:09:4d:c9:23:5e:
        79:1d:7b:fe:d3:61:48:c2:3b:bb:f1:e0:af:39:79:3a:da:64:
        f3:52:fa:9c:f1:89:21:a0:03:c4:00:61:f8:7a:fc:86:d8:17:
        7e:25:0e:d1:df:3b:7d:b2:3c:85:1f:1c:22:5c:0a:14:e3:ac:
        43:78:21:5e:ed:e2:d6:88:62:88:e5:9e:66:5a:51:c3:e3:9f:
        42:9d:7a:9c:b3:ee:f5:92:ee:95:13:5f:c8:15:db:33:11:f0:
        20:fc
-----BEGIN CERTIFICATE-----
MIIC8DCCAlmgAwIBAgIERWeJCDANBgkqhkiG9w0BAQUFADBsMQswCQYDVQQGEwJQ
VDETMBEGA1UECBMKU29tZS1TdGF0ZTEeMBwGA1UEChMVVW5pdmVyc2lkYWRlIGRv
IE1pbmhvMQ8wDQYDVQQLEwZIQVNMYWIxFzAVBgNVBAMTDkNBIEdydXBvIDI3NzE1
MB4XDTE1MDUyMzE3MDUyN1oXDTE2MDUyMjE3MDUyN1owgY8xCzAJBgNVBAYTAlBU
MQ4wDAYDVQQIEwVCcmFnYTEOMAwGA1UEBxMFQnJhZ2ExEzARBgNVBAoTCkJhbmFu
YUNvcnAxEDAOBgNVBAsTB0NsaWVudHMxEzARBgNVBAMTCk1yLkNsaWVudDExJDAi
BgkqhkiG9w0BCQEWFWNsaWVudDFAbWljcm9zb2Z0LmNvbTCBnzANBgkqhkiG9w0B
AQEFAAOBjQAwgYkCgYEAv1dFmocPbwdU2DYZDlyVs52sFN0hbRJk96wZTd61K7/S
8GvJKdb+PemYneZ94QUgZR5bQ2VRAuidR6n6lh9sn1kyuyff1M1b6rkLejRkBI41
F1bWHDCq6j8FnYK3lQsxdKgeYa0nVeysBlvgbLGFV/OSECpxOwf/o6jRNlYcUpkC
AwEAAaN7MHkwCQYDVR0TBAIwADAsBglghkgBhvhCAQ0EHxYdT3BlblNTTCBHZW5l
cmF0ZWQgQ2VydGlmaWNhdGUwHQYDVR0OBBYEFG1TcT3Sih12J6UQAe49dNXntu8T
MB8GA1UdIwQYMBaAFIhLdql/p2rQEoErXHFH85iuRTtPMA0GCSqGSIb3DQEBBQUA
A4GBADZl34PQg2Lnm3lzA0Q7/iFzQ7092t7zDdEdAGbV3UsJTckjXnkde/7TYUjC
O7vx4K85eTraZPNS+pzxiSGgA8QAYfh6/IbYF34lDtHfO32yPIUfHCJcChTjrEN4
IV7t4taIYojlnmZaUcPjn0Kdepyz7vWS7pUTX8gV2zMR8CD8
-----END CERTIFICATE-----
