Certificate:
    Data:
        Version: 3 (0x2)
        Serial Number: 1164413186 (0x45678902)
        Signature Algorithm: sha1WithRSAEncryption
        Issuer: C=PT, ST=Some-State, O=Universidade do Minho, OU=HASLab, CN=CA Grupo 27715
        Validity
            Not Before: Apr  4 15:04:21 2015 GMT
            Not After : Apr  3 15:04:21 2016 GMT
        Subject: C=GR, ST=Some-State, O=fisgn, OU=msjngun, CN=gsjguns
        Subject Public Key Info:
            Public Key Algorithm: rsaEncryption
            RSA Public Key: (1024 bit)
                Modulus (1024 bit):
                    00:e5:38:25:4a:65:32:cf:d1:9e:de:be:7d:91:cf:
                    9b:1a:5d:7b:3f:04:d6:ad:23:8b:40:bf:63:5d:ac:
                    b4:22:f0:10:55:12:28:b2:fb:17:87:4a:54:0a:e6:
                    49:7f:a5:5f:93:e9:dd:5f:e7:cf:12:c5:97:24:75:
                    8e:32:d1:81:3b:28:98:bc:59:21:a3:f4:50:92:90:
                    a2:88:72:b9:7c:c3:93:10:ed:b7:2f:56:2a:3b:d9:
                    78:7d:59:93:51:3c:e6:89:39:2d:59:c8:89:53:82:
                    56:15:4c:ba:11:1b:f8:35:89:e0:20:f2:bd:25:48:
                    c1:4a:0c:53:fd:fa:e2:1c:ff
                Exponent: 65537 (0x10001)
        X509v3 extensions:
            X509v3 Basic Constraints: 
                CA:FALSE
            Netscape Comment: 
                OpenSSL Generated Certificate
            X509v3 Subject Key Identifier: 
                C3:33:75:D6:E7:75:D7:BE:F9:2D:E6:A1:50:D5:6C:66:3B:BE:E2:21
            X509v3 Authority Key Identifier: 
                keyid:88:4B:76:A9:7F:A7:6A:D0:12:81:2B:5C:71:47:F3:98:AE:45:3B:4F

    Signature Algorithm: sha1WithRSAEncryption
        77:4c:9c:77:2c:e9:f5:93:3f:7a:9c:e2:5a:ea:89:73:bd:0c:
        8b:05:6b:31:59:c3:fc:49:51:78:3c:49:7f:7f:a1:92:ca:ed:
        b4:a1:12:1c:be:1c:e5:43:12:6e:35:d0:43:33:86:cb:d1:5d:
        ae:99:6d:5f:95:2e:82:97:14:3d:48:66:f7:b9:d4:a4:6e:02:
        90:19:2c:3d:5b:a1:94:63:9a:83:f1:dd:ee:89:fe:82:18:d4:
        ef:44:5e:e6:82:ee:8c:37:73:29:82:76:2c:be:6d:cd:53:9f:
        d2:68:d5:e4:cb:a6:88:43:55:b4:d0:2b:14:05:93:38:1d:7f:
        4c:89
-----BEGIN CERTIFICATE-----
MIICtjCCAh+gAwIBAgIERWeJAjANBgkqhkiG9w0BAQUFADBsMQswCQYDVQQGEwJQ
VDETMBEGA1UECBMKU29tZS1TdGF0ZTEeMBwGA1UEChMVVW5pdmVyc2lkYWRlIGRv
IE1pbmhvMQ8wDQYDVQQLEwZIQVNMYWIxFzAVBgNVBAMTDkNBIEdydXBvIDI3NzE1
MB4XDTE1MDQwNDE1MDQyMVoXDTE2MDQwMzE1MDQyMVowVjELMAkGA1UEBhMCR1Ix
EzARBgNVBAgTClNvbWUtU3RhdGUxDjAMBgNVBAoTBWZpc2duMRAwDgYDVQQLEwdt
c2puZ3VuMRAwDgYDVQQDEwdnc2pndW5zMIGfMA0GCSqGSIb3DQEBAQUAA4GNADCB
iQKBgQDlOCVKZTLP0Z7evn2Rz5saXXs/BNatI4tAv2NdrLQi8BBVEiiy+xeHSlQK
5kl/pV+T6d1f588SxZckdY4y0YE7KJi8WSGj9FCSkKKIcrl8w5MQ7bcvVio72Xh9
WZNRPOaJOS1ZyIlTglYVTLoRG/g1ieAg8r0lSMFKDFP9+uIc/wIDAQABo3sweTAJ
BgNVHRMEAjAAMCwGCWCGSAGG+EIBDQQfFh1PcGVuU1NMIEdlbmVyYXRlZCBDZXJ0
aWZpY2F0ZTAdBgNVHQ4EFgQUwzN11ud11775LeahUNVsZju+4iEwHwYDVR0jBBgw
FoAUiEt2qX+natASgStccUfzmK5FO08wDQYJKoZIhvcNAQEFBQADgYEAd0ycdyzp
9ZM/epziWuqJc70MiwVrMVnD/ElReDxJf3+hksrttKESHL4c5UMSbjXQQzOGy9Fd
rpltX5UugpcUPUhm97nUpG4CkBksPVuhlGOag/Hd7on+ghjU70Re5oLujDdzKYJ2
LL5tzVOf0mjV5MumiENVtNArFAWTOB1/TIk=
-----END CERTIFICATE-----
