Certificate:
    Data:
        Version: 3 (0x2)
        Serial Number: 1164413185 (0x45678901)
        Signature Algorithm: sha1WithRSAEncryption
        Issuer: C=PT, ST=Some-State, O=Universidade do Minho, OU=HASLab, CN=CA Grupo 27715
        Validity
            Not Before: Apr  4 15:01:23 2015 GMT
            Not After : Apr  3 15:01:23 2016 GMT
        Subject: C=PT, ST=Some-State, O=Universidade do Minho, OU=Banana, CN=hgdhddhhg
        Subject Public Key Info:
            Public Key Algorithm: rsaEncryption
            RSA Public Key: (1024 bit)
                Modulus (1024 bit):
                    00:d4:45:8f:40:a6:bb:6d:f9:d7:a7:24:b3:c3:bf:
                    4a:e9:be:09:62:02:f1:93:c5:21:32:cb:0c:50:98:
                    99:99:6d:9f:53:7d:53:25:12:a7:0c:85:9d:e6:a0:
                    2c:00:82:f9:1b:2b:1f:e4:61:57:a9:fe:1c:84:5b:
                    63:59:96:83:91:03:ad:b9:0a:67:8b:88:4e:96:a6:
                    72:df:a1:66:3c:38:6c:32:e0:09:e1:0f:4f:74:3f:
                    8e:cb:7c:f3:63:1c:ad:f2:77:ac:1e:e5:7a:60:89:
                    ac:bf:22:f2:4a:62:7c:40:75:f4:8d:9d:c4:f7:b4:
                    9a:a9:c4:c7:68:d5:93:6a:4d
                Exponent: 65537 (0x10001)
        X509v3 extensions:
            X509v3 Basic Constraints: 
                CA:FALSE
            Netscape Comment: 
                OpenSSL Generated Certificate
            X509v3 Subject Key Identifier: 
                50:F1:0E:E3:0E:A0:7B:23:FB:6D:D0:12:8C:45:C9:AD:F0:73:18:0B
            X509v3 Authority Key Identifier: 
                keyid:88:4B:76:A9:7F:A7:6A:D0:12:81:2B:5C:71:47:F3:98:AE:45:3B:4F

    Signature Algorithm: sha1WithRSAEncryption
        71:be:6a:4b:79:39:af:fe:58:7c:20:a0:7f:d8:dc:2d:98:49:
        cb:12:ce:80:85:6e:14:0f:fc:8d:b9:0d:6f:08:24:c1:54:fe:
        67:4a:4f:15:29:d4:0f:ca:25:69:00:69:83:49:a0:bc:a4:a2:
        50:d0:fc:fa:8d:0e:2b:60:f6:c4:df:3a:cb:bd:4d:01:db:96:
        2c:79:28:9d:10:e5:75:8c:ff:63:f7:fe:59:a1:7a:c0:58:39:
        bf:8c:5c:cd:e9:67:c1:3e:bd:b5:f4:c5:9c:5c:ab:67:99:b6:
        3a:54:d4:d0:84:55:ef:67:2e:c5:45:74:8c:6b:02:dd:04:60:
        6d:fc
-----BEGIN CERTIFICATE-----
MIICxzCCAjCgAwIBAgIERWeJATANBgkqhkiG9w0BAQUFADBsMQswCQYDVQQGEwJQ
VDETMBEGA1UECBMKU29tZS1TdGF0ZTEeMBwGA1UEChMVVW5pdmVyc2lkYWRlIGRv
IE1pbmhvMQ8wDQYDVQQLEwZIQVNMYWIxFzAVBgNVBAMTDkNBIEdydXBvIDI3NzE1
MB4XDTE1MDQwNDE1MDEyM1oXDTE2MDQwMzE1MDEyM1owZzELMAkGA1UEBhMCUFQx
EzARBgNVBAgTClNvbWUtU3RhdGUxHjAcBgNVBAoTFVVuaXZlcnNpZGFkZSBkbyBN
aW5obzEPMA0GA1UECxMGQmFuYW5hMRIwEAYDVQQDEwloZ2RoZGRoaGcwgZ8wDQYJ
KoZIhvcNAQEBBQADgY0AMIGJAoGBANRFj0Cmu23516cks8O/Sum+CWIC8ZPFITLL
DFCYmZltn1N9UyUSpwyFneagLACC+RsrH+RhV6n+HIRbY1mWg5EDrbkKZ4uITpam
ct+hZjw4bDLgCeEPT3Q/jst882McrfJ3rB7lemCJrL8i8kpifEB19I2dxPe0mqnE
x2jVk2pNAgMBAAGjezB5MAkGA1UdEwQCMAAwLAYJYIZIAYb4QgENBB8WHU9wZW5T
U0wgR2VuZXJhdGVkIENlcnRpZmljYXRlMB0GA1UdDgQWBBRQ8Q7jDqB7I/tt0BKM
Rcmt8HMYCzAfBgNVHSMEGDAWgBSIS3apf6dq0BKBK1xxR/OYrkU7TzANBgkqhkiG
9w0BAQUFAAOBgQBxvmpLeTmv/lh8IKB/2NwtmEnLEs6AhW4UD/yNuQ1vCCTBVP5n
Sk8VKdQPyiVpAGmDSaC8pKJQ0Pz6jQ4rYPbE3zrLvU0B25YseSidEOV1jP9j9/5Z
oXrAWDm/jFzN6WfBPr219MWcXKtnmbY6VNTQhFXvZy7FRXSMawLdBGBt/A==
-----END CERTIFICATE-----
