Certificate:
    Data:
        Version: 3 (0x2)
        Serial Number: 1164413193 (0x45678909)
        Signature Algorithm: sha1WithRSAEncryption
        Issuer: C=PT, ST=Some-State, O=Universidade do Minho, OU=HASLab, CN=CA Grupo 27715
        Validity
            Not Before: May 23 17:25:47 2015 GMT
            Not After : May 22 17:25:47 2016 GMT
        Subject: C=PT, ST=Braga, L=Braga, O=BananaCorp, OU=Servers, CN=BananaCorpServer/emailAddress=server@bananacorp.org
        Subject Public Key Info:
            Public Key Algorithm: rsaEncryption
            RSA Public Key: (1024 bit)
                Modulus (1024 bit):
                    00:af:22:f4:81:70:e0:9f:0b:3c:d0:0b:10:76:97:
                    eb:78:7f:04:a8:58:88:8c:29:83:9f:a3:18:ac:67:
                    af:ec:93:2f:82:4e:aa:79:90:af:35:32:52:77:b2:
                    9d:43:45:bc:62:99:26:b2:94:d5:01:d6:ba:f8:9d:
                    13:a7:32:2f:14:86:9b:74:4c:e1:57:74:f6:f2:0a:
                    cb:25:44:d2:45:9c:0c:2d:5f:10:9b:99:9e:60:94:
                    31:f3:9e:3e:75:76:77:bd:04:6a:6b:78:eb:bb:dc:
                    86:4e:f3:4d:03:77:d5:d8:18:fa:6b:36:c8:b3:74:
                    35:f6:8b:fd:cd:7d:00:f7:99
                Exponent: 65537 (0x10001)
        X509v3 extensions:
            X509v3 Basic Constraints: 
                CA:FALSE
            Netscape Comment: 
                OpenSSL Generated Certificate
            X509v3 Subject Key Identifier: 
                09:F1:21:0B:E0:49:BE:42:DA:15:33:C6:48:03:C1:6C:4B:37:39:9E
            X509v3 Authority Key Identifier: 
                keyid:88:4B:76:A9:7F:A7:6A:D0:12:81:2B:5C:71:47:F3:98:AE:45:3B:4F

    Signature Algorithm: sha1WithRSAEncryption
        1b:b7:60:52:c8:ae:44:c3:80:78:43:f8:4e:40:e4:50:9f:29:
        1b:b0:70:87:5b:ab:cd:17:7c:d6:63:b6:fc:53:56:32:72:5c:
        b0:e0:22:e4:22:a6:0d:a2:0d:09:ce:a1:12:eb:e8:b9:4d:52:
        c9:77:78:af:96:8b:4e:3a:49:44:a3:bf:64:bd:91:cc:cc:90:
        50:e8:18:80:be:65:b7:0d:a0:ca:62:1c:c4:aa:04:8a:42:48:
        b3:df:24:59:1e:c2:0f:b0:90:f3:6f:de:0e:9f:e4:b8:47:e1:
        0b:29:10:c5:cc:d7:78:76:3e:65:2a:67:4c:29:fa:89:46:a5:
        6f:03
-----BEGIN CERTIFICATE-----
MIIC9jCCAl+gAwIBAgIERWeJCTANBgkqhkiG9w0BAQUFADBsMQswCQYDVQQGEwJQ
VDETMBEGA1UECBMKU29tZS1TdGF0ZTEeMBwGA1UEChMVVW5pdmVyc2lkYWRlIGRv
IE1pbmhvMQ8wDQYDVQQLEwZIQVNMYWIxFzAVBgNVBAMTDkNBIEdydXBvIDI3NzE1
MB4XDTE1MDUyMzE3MjU0N1oXDTE2MDUyMjE3MjU0N1owgZUxCzAJBgNVBAYTAlBU
MQ4wDAYDVQQIEwVCcmFnYTEOMAwGA1UEBxMFQnJhZ2ExEzARBgNVBAoTCkJhbmFu
YUNvcnAxEDAOBgNVBAsTB1NlcnZlcnMxGTAXBgNVBAMTEEJhbmFuYUNvcnBTZXJ2
ZXIxJDAiBgkqhkiG9w0BCQEWFXNlcnZlckBiYW5hbmFjb3JwLm9yZzCBnzANBgkq
hkiG9w0BAQEFAAOBjQAwgYkCgYEAryL0gXDgnws80AsQdpfreH8EqFiIjCmDn6MY
rGev7JMvgk6qeZCvNTJSd7KdQ0W8YpkmspTVAda6+J0TpzIvFIabdEzhV3T28grL
JUTSRZwMLV8Qm5meYJQx854+dXZ3vQRqa3jru9yGTvNNA3fV2Bj6azbIs3Q19ov9
zX0A95kCAwEAAaN7MHkwCQYDVR0TBAIwADAsBglghkgBhvhCAQ0EHxYdT3BlblNT
TCBHZW5lcmF0ZWQgQ2VydGlmaWNhdGUwHQYDVR0OBBYEFAnxIQvgSb5C2hUzxkgD
wWxLNzmeMB8GA1UdIwQYMBaAFIhLdql/p2rQEoErXHFH85iuRTtPMA0GCSqGSIb3
DQEBBQUAA4GBABu3YFLIrkTDgHhD+E5A5FCfKRuwcIdbq80XfNZjtvxTVjJyXLDg
IuQipg2iDQnOoRLr6LlNUsl3eK+Wi046SUSjv2S9kczMkFDoGIC+ZbcNoMpiHMSq
BIpCSLPfJFkewg+wkPNv3g6f5LhH4QspEMXM13h2PmUqZ0wp+olGpW8D
-----END CERTIFICATE-----
