Certificate:
    Data:
        Version: 3 (0x2)
        Serial Number: 1164413187 (0x45678903)
        Signature Algorithm: sha1WithRSAEncryption
        Issuer: C=PT, ST=Some-State, O=Universidade do Minho, OU=HASLab, CN=CA Grupo 27715
        Validity
            Not Before: Apr 13 10:51:57 2015 GMT
            Not After : Apr 12 10:51:57 2016 GMT
        Subject: C=PT, ST=Some-State, O=Universidade do Minho, OU=HASLab, CN=Duarte Duarte/emailAddress=duartenuno1992@hotmail.com
        Subject Public Key Info:
            Public Key Algorithm: rsaEncryption
            RSA Public Key: (1024 bit)
                Modulus (1024 bit):
                    00:a9:a3:78:60:53:9b:d7:46:f3:ea:f9:d5:b7:a3:
                    c7:f1:1d:04:38:da:7a:88:98:cf:bb:6a:44:5c:88:
                    02:e0:36:8e:7d:c8:7a:84:93:66:14:85:41:c9:14:
                    b6:32:e8:9f:04:49:8a:a4:25:00:da:e2:1f:3f:3c:
                    03:d9:94:f6:45:75:93:ac:ae:ef:cd:c1:ed:6c:0b:
                    09:a1:e2:96:3b:69:4b:f8:8e:5e:9e:64:da:9b:7b:
                    6b:0d:eb:aa:64:38:ee:ae:78:e3:da:21:0e:9d:9d:
                    4d:33:7d:c6:9a:64:16:ed:4f:70:ed:db:59:2c:a4:
                    76:f6:f7:cf:2a:0f:10:69:81
                Exponent: 65537 (0x10001)
        X509v3 extensions:
            X509v3 Basic Constraints: 
                CA:FALSE
            Netscape Comment: 
                OpenSSL Generated Certificate
            X509v3 Subject Key Identifier: 
                FA:B9:0E:32:78:7F:6D:1D:FE:C3:1F:DC:BD:E7:DA:68:E5:19:78:05
            X509v3 Authority Key Identifier: 
                keyid:88:4B:76:A9:7F:A7:6A:D0:12:81:2B:5C:71:47:F3:98:AE:45:3B:4F

    Signature Algorithm: sha1WithRSAEncryption
        5d:a8:1b:cf:3c:b2:2a:41:16:8b:a7:4a:37:a4:e7:ff:66:93:
        30:aa:5d:cb:f7:37:ea:4a:25:c6:8a:76:df:76:1a:31:b7:01:
        df:c6:8d:14:35:f5:62:3b:e2:98:e6:23:fc:5c:b8:fb:3a:30:
        ca:85:5d:e8:35:56:4d:76:2a:05:28:de:c7:dc:62:27:a3:d2:
        44:fa:fe:63:b8:ff:aa:32:6b:a9:98:03:4b:88:e3:ca:71:60:
        e7:ef:01:65:86:18:f9:98:20:87:d5:df:84:87:17:ed:e9:41:
        e4:94:e0:88:2f:09:5b:36:3d:e5:28:c3:2a:45:21:53:31:99:
        57:21
-----BEGIN CERTIFICATE-----
MIIC9zCCAmCgAwIBAgIERWeJAzANBgkqhkiG9w0BAQUFADBsMQswCQYDVQQGEwJQ
VDETMBEGA1UECBMKU29tZS1TdGF0ZTEeMBwGA1UEChMVVW5pdmVyc2lkYWRlIGRv
IE1pbmhvMQ8wDQYDVQQLEwZIQVNMYWIxFzAVBgNVBAMTDkNBIEdydXBvIDI3NzE1
MB4XDTE1MDQxMzEwNTE1N1oXDTE2MDQxMjEwNTE1N1owgZYxCzAJBgNVBAYTAlBU
MRMwEQYDVQQIEwpTb21lLVN0YXRlMR4wHAYDVQQKExVVbml2ZXJzaWRhZGUgZG8g
TWluaG8xDzANBgNVBAsTBkhBU0xhYjEWMBQGA1UEAxMNRHVhcnRlIER1YXJ0ZTEp
MCcGCSqGSIb3DQEJARYaZHVhcnRlbnVubzE5OTJAaG90bWFpbC5jb20wgZ8wDQYJ
KoZIhvcNAQEBBQADgY0AMIGJAoGBAKmjeGBTm9dG8+r51bejx/EdBDjaeoiYz7tq
RFyIAuA2jn3IeoSTZhSFQckUtjLonwRJiqQlANriHz88A9mU9kV1k6yu783B7WwL
CaHiljtpS/iOXp5k2pt7aw3rqmQ47q5449ohDp2dTTN9xppkFu1PcO3bWSykdvb3
zyoPEGmBAgMBAAGjezB5MAkGA1UdEwQCMAAwLAYJYIZIAYb4QgENBB8WHU9wZW5T
U0wgR2VuZXJhdGVkIENlcnRpZmljYXRlMB0GA1UdDgQWBBT6uQ4yeH9tHf7DH9y9
59po5Rl4BTAfBgNVHSMEGDAWgBSIS3apf6dq0BKBK1xxR/OYrkU7TzANBgkqhkiG
9w0BAQUFAAOBgQBdqBvPPLIqQRaLp0o3pOf/ZpMwql3L9zfqSiXGinbfdhoxtwHf
xo0UNfViO+KY5iP8XLj7OjDKhV3oNVZNdioFKN7H3GIno9JE+v5juP+qMmupmANL
iOPKcWDn7wFlhhj5mCCH1d+Ehxft6UHklOCILwlbNj3lKMMqRSFTMZlXIQ==
-----END CERTIFICATE-----
