Certificate:
    Data:
        Version: 3 (0x2)
        Serial Number: 1164413195 (0x4567890b)
        Signature Algorithm: sha1WithRSAEncryption
        Issuer: C=PT, ST=Some-State, O=Universidade do Minho, OU=HASLab, CN=CA Grupo 27715
        Validity
            Not Before: May 26 09:04:00 2015 GMT
            Not After : May 25 09:04:00 2016 GMT
        Subject: C=PT, ST=Some-State, O=Universidade do Minho, OU=HASLab, CN=Duarte Duarte/emailAddress=duartenuno1992@hotmail.com
        Subject Public Key Info:
            Public Key Algorithm: rsaEncryption
            RSA Public Key: (1024 bit)
                Modulus (1024 bit):
                    00:d8:5e:9b:be:b0:21:b3:61:e4:15:2d:21:23:52:
                    0c:5d:e5:3c:a3:81:7d:e6:ae:80:1c:28:72:ed:57:
                    99:ff:d7:77:52:88:da:32:b1:c6:d8:48:92:37:c9:
                    e2:f0:f6:70:15:09:9e:35:a9:13:63:d8:d7:5e:54:
                    42:fc:bb:d2:6b:85:1b:2c:11:d5:81:2f:75:0e:8c:
                    71:48:3f:f7:7f:de:8d:7c:85:16:d6:7f:b8:a3:f5:
                    de:a5:8b:ba:5c:1c:52:73:1a:9c:ee:dd:18:a2:35:
                    14:ca:e9:76:c0:a4:ce:d7:41:3a:78:eb:26:49:cb:
                    1e:5f:c3:5c:1d:2b:d6:db:8d
                Exponent: 65537 (0x10001)
        X509v3 extensions:
            X509v3 Basic Constraints: 
                CA:FALSE
            Netscape Comment: 
                OpenSSL Generated Certificate
            X509v3 Subject Key Identifier: 
                8E:D7:F8:CC:64:4D:10:A3:4F:2C:B0:DA:03:26:1F:A4:AF:98:AD:0F
            X509v3 Authority Key Identifier: 
                keyid:88:4B:76:A9:7F:A7:6A:D0:12:81:2B:5C:71:47:F3:98:AE:45:3B:4F

    Signature Algorithm: sha1WithRSAEncryption
        a7:ee:db:f2:bb:c3:96:f1:bb:24:9b:4d:3b:30:14:94:2e:95:
        fb:64:bd:41:de:81:67:a3:2c:20:aa:c3:3e:c9:ed:d3:48:2c:
        ac:df:fb:2e:17:e6:7f:58:a3:cd:be:3d:69:ed:57:cc:33:df:
        88:d3:7d:33:a0:49:e3:dc:32:91:d0:04:39:03:12:7d:ca:0c:
        8a:ec:7d:64:94:97:16:c3:f0:40:04:32:7b:67:a1:5d:76:17:
        16:c1:40:dc:5c:8f:15:08:89:7c:5f:9f:07:92:24:e9:19:00:
        0e:fe:9b:af:05:94:20:66:fd:0b:f0:1e:a2:27:98:aa:17:b7:
        a9:ee
-----BEGIN CERTIFICATE-----
MIIC9zCCAmCgAwIBAgIERWeJCzANBgkqhkiG9w0BAQUFADBsMQswCQYDVQQGEwJQ
VDETMBEGA1UECBMKU29tZS1TdGF0ZTEeMBwGA1UEChMVVW5pdmVyc2lkYWRlIGRv
IE1pbmhvMQ8wDQYDVQQLEwZIQVNMYWIxFzAVBgNVBAMTDkNBIEdydXBvIDI3NzE1
MB4XDTE1MDUyNjA5MDQwMFoXDTE2MDUyNTA5MDQwMFowgZYxCzAJBgNVBAYTAlBU
MRMwEQYDVQQIEwpTb21lLVN0YXRlMR4wHAYDVQQKExVVbml2ZXJzaWRhZGUgZG8g
TWluaG8xDzANBgNVBAsTBkhBU0xhYjEWMBQGA1UEAxMNRHVhcnRlIER1YXJ0ZTEp
MCcGCSqGSIb3DQEJARYaZHVhcnRlbnVubzE5OTJAaG90bWFpbC5jb20wgZ8wDQYJ
KoZIhvcNAQEBBQADgY0AMIGJAoGBANhem76wIbNh5BUtISNSDF3lPKOBfeaugBwo
cu1Xmf/Xd1KI2jKxxthIkjfJ4vD2cBUJnjWpE2PY115UQvy70muFGywR1YEvdQ6M
cUg/93/ejXyFFtZ/uKP13qWLulwcUnManO7dGKI1FMrpdsCkztdBOnjrJknLHl/D
XB0r1tuNAgMBAAGjezB5MAkGA1UdEwQCMAAwLAYJYIZIAYb4QgENBB8WHU9wZW5T
U0wgR2VuZXJhdGVkIENlcnRpZmljYXRlMB0GA1UdDgQWBBSO1/jMZE0Qo08ssNoD
Jh+kr5itDzAfBgNVHSMEGDAWgBSIS3apf6dq0BKBK1xxR/OYrkU7TzANBgkqhkiG
9w0BAQUFAAOBgQCn7tvyu8OW8bskm007MBSULpX7ZL1B3oFnoywgqsM+ye3TSCys
3/suF+Z/WKPNvj1p7VfMM9+I030zoEnj3DKR0AQ5AxJ9ygyK7H1klJcWw/BABDJ7
Z6FddhcWwUDcXI8VCIl8X58HkiTpGQAO/puvBZQgZv0L8B6iJ5iqF7ep7g==
-----END CERTIFICATE-----
