Certificate:
    Data:
        Version: 3 (0x2)
        Serial Number: 1164413190 (0x45678906)
        Signature Algorithm: sha1WithRSAEncryption
        Issuer: C=PT, ST=Some-State, O=Universidade do Minho, OU=HASLab, CN=CA Grupo 27715
        Validity
            Not Before: Apr 28 22:13:18 2015 GMT
            Not After : Apr 27 22:13:18 2016 GMT
        Subject: C=PT, ST=Lisboa, L=Almada, O=MonkeyBusiness, OU=Monkeys, CN=Ze Tolas
        Subject Public Key Info:
            Public Key Algorithm: rsaEncryption
            RSA Public Key: (1024 bit)
                Modulus (1024 bit):
                    00:d4:16:94:97:fe:c8:8f:e2:2b:2c:2d:ad:da:d0:
                    38:21:63:5c:d9:01:79:e0:a7:27:88:f6:27:20:e3:
                    2f:f6:a7:7b:fc:06:4f:17:ce:99:43:42:9f:6f:4d:
                    d7:c8:e4:2c:c8:2f:5c:b0:61:d5:25:5a:3a:a2:39:
                    07:da:0f:20:bd:25:5c:f8:76:de:a6:2c:df:78:a1:
                    83:c5:03:bb:4e:e8:b5:13:46:50:31:a2:30:a0:02:
                    b9:50:83:99:9e:fd:13:0d:d1:79:4b:b3:62:a3:d7:
                    e5:ab:63:9f:b4:7e:13:35:13:9d:bb:32:a4:8e:6a:
                    2d:eb:eb:bb:97:ff:6a:08:43
                Exponent: 65537 (0x10001)
        X509v3 extensions:
            X509v3 Basic Constraints: 
                CA:FALSE
            Netscape Comment: 
                OpenSSL Generated Certificate
            X509v3 Subject Key Identifier: 
                67:13:E3:24:FF:26:9B:B2:BB:1C:36:9E:9D:83:7C:96:9E:D8:1C:E8
            X509v3 Authority Key Identifier: 
                keyid:88:4B:76:A9:7F:A7:6A:D0:12:81:2B:5C:71:47:F3:98:AE:45:3B:4F

    Signature Algorithm: sha1WithRSAEncryption
        b4:97:90:aa:ff:b0:99:72:c5:87:9c:66:06:22:dd:23:cb:a6:
        37:f0:01:73:7b:b1:20:f8:0c:eb:d8:f4:56:82:62:0e:00:2d:
        68:c1:8c:79:eb:1f:e0:1a:a7:bf:e3:49:4a:b3:db:07:fe:d9:
        1d:e1:05:04:c8:5d:96:20:d8:1b:39:20:ca:22:09:19:7f:76:
        6b:e1:01:57:4e:31:a6:ff:94:70:c3:d5:fe:f1:6e:b3:96:b0:
        71:b0:9e:1b:3b:df:3b:16:57:03:f4:7b:49:6b:1d:06:5e:2b:
        6f:0b:3f:0c:2f:a7:f2:9a:d0:d0:44:6c:0e:df:33:06:f6:bd:
        66:aa
-----BEGIN CERTIFICATE-----
MIICzTCCAjagAwIBAgIERWeJBjANBgkqhkiG9w0BAQUFADBsMQswCQYDVQQGEwJQ
VDETMBEGA1UECBMKU29tZS1TdGF0ZTEeMBwGA1UEChMVVW5pdmVyc2lkYWRlIGRv
IE1pbmhvMQ8wDQYDVQQLEwZIQVNMYWIxFzAVBgNVBAMTDkNBIEdydXBvIDI3NzE1
MB4XDTE1MDQyODIyMTMxOFoXDTE2MDQyNzIyMTMxOFowbTELMAkGA1UEBhMCUFQx
DzANBgNVBAgTBkxpc2JvYTEPMA0GA1UEBxMGQWxtYWRhMRcwFQYDVQQKEw5Nb25r
ZXlCdXNpbmVzczEQMA4GA1UECxMHTW9ua2V5czERMA8GA1UEAxMIWmUgVG9sYXMw
gZ8wDQYJKoZIhvcNAQEBBQADgY0AMIGJAoGBANQWlJf+yI/iKywtrdrQOCFjXNkB
eeCnJ4j2JyDjL/ane/wGTxfOmUNCn29N18jkLMgvXLBh1SVaOqI5B9oPIL0lXPh2
3qYs33ihg8UDu07otRNGUDGiMKACuVCDmZ79Ew3ReUuzYqPX5atjn7R+EzUTnbsy
pI5qLevru5f/aghDAgMBAAGjezB5MAkGA1UdEwQCMAAwLAYJYIZIAYb4QgENBB8W
HU9wZW5TU0wgR2VuZXJhdGVkIENlcnRpZmljYXRlMB0GA1UdDgQWBBRnE+Mk/yab
srscNp6dg3yWntgc6DAfBgNVHSMEGDAWgBSIS3apf6dq0BKBK1xxR/OYrkU7TzAN
BgkqhkiG9w0BAQUFAAOBgQC0l5Cq/7CZcsWHnGYGIt0jy6Y38AFze7Eg+Azr2PRW
gmIOAC1owYx56x/gGqe/40lKs9sH/tkd4QUEyF2WINgbOSDKIgkZf3Zr4QFXTjGm
/5Rww9X+8W6zlrBxsJ4bO987FlcD9HtJax0GXitvCz8ML6fymtDQRGwO3zMG9r1m
qg==
-----END CERTIFICATE-----
