Certificate:
    Data:
        Version: 3 (0x2)
        Serial Number: 1164413198 (0x4567890e)
        Signature Algorithm: sha1WithRSAEncryption
        Issuer: C=PT, ST=Some-State, O=Universidade do Minho, OU=HASLab, CN=CA Grupo 27715
        Validity
            Not Before: Jul  1 10:37:19 2015 GMT
            Not After : Jun 30 10:37:19 2016 GMT
        Subject: C=PT, ST=Braga, L=S. Vitor, O=Clients, OU=user3, CN=user3/emailAddress=user3@hotmail.com
        Subject Public Key Info:
            Public Key Algorithm: rsaEncryption
            RSA Public Key: (1024 bit)
                Modulus (1024 bit):
                    00:de:e7:72:a5:d2:60:00:97:e2:38:fb:2a:c2:9d:
                    d0:ce:3d:21:ce:4d:6a:45:46:a4:cd:db:6f:3e:2c:
                    34:09:f1:79:8f:97:04:f7:df:41:35:5e:bc:44:c5:
                    8c:96:42:0a:42:b8:1d:38:e5:41:c1:ad:d4:3c:42:
                    fd:e5:f2:fc:db:2d:7e:2f:57:b4:18:53:42:b7:1e:
                    a1:c2:f3:0d:38:8c:a0:80:83:92:e9:22:5a:55:ed:
                    87:59:fb:44:1d:58:72:cf:b3:fd:62:83:5d:23:8c:
                    00:5c:9f:83:13:bd:e9:ce:f4:f9:31:95:89:bd:54:
                    ba:3a:2a:00:c5:89:12:60:bd
                Exponent: 65537 (0x10001)
        X509v3 extensions:
            X509v3 Basic Constraints: 
                CA:FALSE
            Netscape Comment: 
                OpenSSL Generated Certificate
            X509v3 Subject Key Identifier: 
                A1:D9:93:DD:B5:2F:39:FE:E3:97:BB:01:72:AD:60:3E:1C:D2:80:CF
            X509v3 Authority Key Identifier: 
                keyid:88:4B:76:A9:7F:A7:6A:D0:12:81:2B:5C:71:47:F3:98:AE:45:3B:4F

    Signature Algorithm: sha1WithRSAEncryption
        6e:a0:61:2f:a2:e6:10:b4:ae:b2:68:c9:5c:6e:f1:a2:84:65:
        b7:57:be:88:d3:d3:ca:6d:4c:b4:29:2c:8a:f8:53:21:fc:ad:
        3f:e3:6c:ed:bb:f1:48:65:29:8c:b3:2c:fe:46:75:a6:30:10:
        c3:fb:3a:e4:ce:fa:3d:c9:a7:29:6c:71:da:4c:33:90:a7:17:
        fe:93:0b:ea:e5:39:1a:c2:33:ad:81:e8:a2:43:ac:b6:cd:7e:
        6d:fb:66:06:b3:b5:67:8a:4f:a7:29:8a:22:fc:bf:4b:59:a0:
        1d:93:ed:0f:cf:3e:86:0d:df:c2:79:b3:0a:9d:d3:1b:1b:c3:
        bb:42
-----BEGIN CERTIFICATE-----
MIIC5TCCAk6gAwIBAgIERWeJDjANBgkqhkiG9w0BAQUFADBsMQswCQYDVQQGEwJQ
VDETMBEGA1UECBMKU29tZS1TdGF0ZTEeMBwGA1UEChMVVW5pdmVyc2lkYWRlIGRv
IE1pbmhvMQ8wDQYDVQQLEwZIQVNMYWIxFzAVBgNVBAMTDkNBIEdydXBvIDI3NzE1
MB4XDTE1MDcwMTEwMzcxOVoXDTE2MDYzMDEwMzcxOVowgYQxCzAJBgNVBAYTAlBU
MQ4wDAYDVQQIEwVCcmFnYTERMA8GA1UEBxMIUy4gVml0b3IxEDAOBgNVBAoTB0Ns
aWVudHMxDjAMBgNVBAsTBXVzZXIzMQ4wDAYDVQQDEwV1c2VyMzEgMB4GCSqGSIb3
DQEJARYRdXNlcjNAaG90bWFpbC5jb20wgZ8wDQYJKoZIhvcNAQEBBQADgY0AMIGJ
AoGBAN7ncqXSYACX4jj7KsKd0M49Ic5NakVGpM3bbz4sNAnxeY+XBPffQTVevETF
jJZCCkK4HTjlQcGt1DxC/eXy/Nstfi9XtBhTQrceocLzDTiMoICDkukiWlXth1n7
RB1Ycs+z/WKDXSOMAFyfgxO96c70+TGVib1UujoqAMWJEmC9AgMBAAGjezB5MAkG
A1UdEwQCMAAwLAYJYIZIAYb4QgENBB8WHU9wZW5TU0wgR2VuZXJhdGVkIENlcnRp
ZmljYXRlMB0GA1UdDgQWBBSh2ZPdtS85/uOXuwFyrWA+HNKAzzAfBgNVHSMEGDAW
gBSIS3apf6dq0BKBK1xxR/OYrkU7TzANBgkqhkiG9w0BAQUFAAOBgQBuoGEvouYQ
tK6yaMlcbvGihGW3V76I09PKbUy0KSyK+FMh/K0/42ztu/FIZSmMsyz+RnWmMBDD
+zrkzvo9yacpbHHaTDOQpxf+kwvq5TkawjOtgeiiQ6y2zX5t+2YGs7Vnik+nKYoi
/L9LWaAdk+0Pzz6GDd/CebMKndMbG8O7Qg==
-----END CERTIFICATE-----
