Certificate:
    Data:
        Version: 3 (0x2)
        Serial Number: 1164413196 (0x4567890c)
        Signature Algorithm: sha1WithRSAEncryption
        Issuer: C=PT, ST=Some-State, O=Universidade do Minho, OU=HASLab, CN=CA Grupo 27715
        Validity
            Not Before: Jun 16 20:59:59 2015 GMT
            Not After : Jun 15 20:59:59 2016 GMT
        Subject: C=PT, ST=Braga, L=Braga, O=BananaCorp, OU=Clients, CN=user/emailAddress=user@hotmail.com
        Subject Public Key Info:
            Public Key Algorithm: rsaEncryption
            RSA Public Key: (1024 bit)
                Modulus (1024 bit):
                    00:ad:4a:2d:53:fd:47:78:5f:55:b1:08:d9:cc:67:
                    ed:00:55:a8:df:ba:e3:6f:a4:1d:b4:4e:34:8e:9c:
                    23:67:67:08:1f:2a:63:5e:eb:ba:60:6f:52:7d:c9:
                    37:b6:e2:ba:64:05:38:cc:75:5d:75:05:2c:27:fa:
                    b1:14:83:73:10:08:91:83:0d:ea:a7:80:70:5e:b7:
                    28:09:d1:85:3d:5c:c3:41:9b:04:23:ef:c6:57:91:
                    49:58:4c:f1:58:32:96:dc:d9:d3:ca:d0:7f:63:bd:
                    c7:d5:f8:60:0f:4a:3d:9b:cc:f1:84:48:5a:3a:17:
                    2a:f0:bc:60:45:d7:30:9f:89
                Exponent: 65537 (0x10001)
        X509v3 extensions:
            X509v3 Basic Constraints: 
                CA:FALSE
            Netscape Comment: 
                OpenSSL Generated Certificate
            X509v3 Subject Key Identifier: 
                BB:D1:AB:9A:C6:D4:C9:14:53:15:72:70:D7:34:F3:84:1E:E9:5C:9A
            X509v3 Authority Key Identifier: 
                keyid:88:4B:76:A9:7F:A7:6A:D0:12:81:2B:5C:71:47:F3:98:AE:45:3B:4F

    Signature Algorithm: sha1WithRSAEncryption
        17:bc:7b:56:d7:2f:03:4d:a4:bd:f9:dd:03:46:73:01:01:2d:
        69:7e:b8:5a:d4:dd:cc:62:4a:7e:4a:3d:9b:23:f9:64:05:1e:
        1b:81:0c:9e:6a:33:43:a8:58:54:c1:76:23:2b:b3:03:b1:6c:
        72:fe:4d:62:2e:11:aa:2e:a9:d4:89:d5:74:fa:c4:1a:1b:a2:
        a3:8b:5a:1b:b8:e0:35:c6:88:26:f1:5f:45:99:8e:67:e3:7c:
        a6:1a:4e:1c:a4:fb:19:6b:e7:a7:dc:92:03:59:e3:f2:4a:e2:
        eb:a2:e7:1a:5c:14:90:44:a0:85:60:30:f8:f3:47:38:1c:cc:
        fe:01
-----BEGIN CERTIFICATE-----
MIIC5TCCAk6gAwIBAgIERWeJDDANBgkqhkiG9w0BAQUFADBsMQswCQYDVQQGEwJQ
VDETMBEGA1UECBMKU29tZS1TdGF0ZTEeMBwGA1UEChMVVW5pdmVyc2lkYWRlIGRv
IE1pbmhvMQ8wDQYDVQQLEwZIQVNMYWIxFzAVBgNVBAMTDkNBIEdydXBvIDI3NzE1
MB4XDTE1MDYxNjIwNTk1OVoXDTE2MDYxNTIwNTk1OVowgYQxCzAJBgNVBAYTAlBU
MQ4wDAYDVQQIEwVCcmFnYTEOMAwGA1UEBxMFQnJhZ2ExEzARBgNVBAoTCkJhbmFu
YUNvcnAxEDAOBgNVBAsTB0NsaWVudHMxDTALBgNVBAMTBHVzZXIxHzAdBgkqhkiG
9w0BCQEWEHVzZXJAaG90bWFpbC5jb20wgZ8wDQYJKoZIhvcNAQEBBQADgY0AMIGJ
AoGBAK1KLVP9R3hfVbEI2cxn7QBVqN+642+kHbRONI6cI2dnCB8qY17rumBvUn3J
N7biumQFOMx1XXUFLCf6sRSDcxAIkYMN6qeAcF63KAnRhT1cw0GbBCPvxleRSVhM
8VgyltzZ08rQf2O9x9X4YA9KPZvM8YRIWjoXKvC8YEXXMJ+JAgMBAAGjezB5MAkG
A1UdEwQCMAAwLAYJYIZIAYb4QgENBB8WHU9wZW5TU0wgR2VuZXJhdGVkIENlcnRp
ZmljYXRlMB0GA1UdDgQWBBS70auaxtTJFFMVcnDXNPOEHulcmjAfBgNVHSMEGDAW
gBSIS3apf6dq0BKBK1xxR/OYrkU7TzANBgkqhkiG9w0BAQUFAAOBgQAXvHtW1y8D
TaS9+d0DRnMBAS1pfrha1N3MYkp+Sj2bI/lkBR4bgQyeajNDqFhUwXYjK7MDsWxy
/k1iLhGqLqnUidV0+sQaG6Kji1obuOA1xogm8V9FmY5n43ymGk4cpPsZa+en3JID
WePySuLroucaXBSQRKCFYDD480c4HMz+AQ==
-----END CERTIFICATE-----
