Certificate:
    Data:
        Version: 3 (0x2)
        Serial Number: 1164413197 (0x4567890d)
        Signature Algorithm: sha1WithRSAEncryption
        Issuer: C=PT, ST=Some-State, O=Universidade do Minho, OU=HASLab, CN=CA Grupo 27715
        Validity
            Not Before: Jun 16 21:03:09 2015 GMT
            Not After : Jun 15 21:03:09 2016 GMT
        Subject: C=PT, ST=Porto, L=Santo Ildefonso, O=Clients, OU=user2, CN=user2/emailAddress=user2@gmail.com
        Subject Public Key Info:
            Public Key Algorithm: rsaEncryption
            RSA Public Key: (1024 bit)
                Modulus (1024 bit):
                    00:e2:28:a7:88:2d:e4:a6:45:96:4a:83:f8:a8:24:
                    7b:7e:6d:b2:07:c1:9e:03:8b:3e:b9:81:27:57:b0:
                    58:a0:07:7f:07:c5:a7:27:ce:41:b4:c2:b1:7f:72:
                    57:a7:30:da:06:26:de:23:9e:72:9e:90:8b:50:b9:
                    4f:c9:b7:95:75:98:13:10:b1:99:7d:8a:49:af:64:
                    6a:b2:8a:b1:78:a6:ec:ef:29:b5:c6:f2:4d:b1:4e:
                    1a:b0:f3:1c:63:eb:f8:a7:9e:c8:75:8b:d7:75:7f:
                    b3:a4:51:57:ff:fe:47:94:ae:74:9b:2e:e1:78:9c:
                    72:98:07:07:47:1b:a8:1b:1d
                Exponent: 65537 (0x10001)
        X509v3 extensions:
            X509v3 Basic Constraints: 
                CA:FALSE
            Netscape Comment: 
                OpenSSL Generated Certificate
            X509v3 Subject Key Identifier: 
                9B:E2:96:B1:D2:4B:82:04:69:DD:43:7D:D7:48:36:6A:7F:BC:95:D1
            X509v3 Authority Key Identifier: 
                keyid:88:4B:76:A9:7F:A7:6A:D0:12:81:2B:5C:71:47:F3:98:AE:45:3B:4F

    Signature Algorithm: sha1WithRSAEncryption
        33:ad:15:90:d9:13:a4:50:70:4e:23:81:7d:8f:38:de:aa:41:
        2b:98:c6:87:21:ba:b8:56:8e:fd:62:28:c8:5d:3d:ea:0c:28:
        77:f8:a5:73:4c:1a:14:58:3a:72:82:8e:61:ba:06:7d:95:7b:
        58:71:84:0b:d9:bf:f7:99:08:70:ef:e3:06:97:a4:18:98:19:
        8b:f1:3c:35:4e:1b:03:f3:cc:ce:8b:74:91:f8:9b:a6:4b:e7:
        86:d7:96:23:39:37:76:84:36:08:c2:a7:12:07:10:8b:41:d1:
        4c:c9:5b:e3:1f:8f:f3:37:94:f5:85:01:24:9e:5e:d1:fc:db:
        3e:40
-----BEGIN CERTIFICATE-----
MIIC6jCCAlOgAwIBAgIERWeJDTANBgkqhkiG9w0BAQUFADBsMQswCQYDVQQGEwJQ
VDETMBEGA1UECBMKU29tZS1TdGF0ZTEeMBwGA1UEChMVVW5pdmVyc2lkYWRlIGRv
IE1pbmhvMQ8wDQYDVQQLEwZIQVNMYWIxFzAVBgNVBAMTDkNBIEdydXBvIDI3NzE1
MB4XDTE1MDYxNjIxMDMwOVoXDTE2MDYxNTIxMDMwOVowgYkxCzAJBgNVBAYTAlBU
MQ4wDAYDVQQIEwVQb3J0bzEYMBYGA1UEBxMPU2FudG8gSWxkZWZvbnNvMRAwDgYD
VQQKEwdDbGllbnRzMQ4wDAYDVQQLEwV1c2VyMjEOMAwGA1UEAxMFdXNlcjIxHjAc
BgkqhkiG9w0BCQEWD3VzZXIyQGdtYWlsLmNvbTCBnzANBgkqhkiG9w0BAQEFAAOB
jQAwgYkCgYEA4iiniC3kpkWWSoP4qCR7fm2yB8GeA4s+uYEnV7BYoAd/B8WnJ85B
tMKxf3JXpzDaBibeI55ynpCLULlPybeVdZgTELGZfYpJr2RqsoqxeKbs7ym1xvJN
sU4asPMcY+v4p57IdYvXdX+zpFFX//5HlK50my7heJxymAcHRxuoGx0CAwEAAaN7
MHkwCQYDVR0TBAIwADAsBglghkgBhvhCAQ0EHxYdT3BlblNTTCBHZW5lcmF0ZWQg
Q2VydGlmaWNhdGUwHQYDVR0OBBYEFJvilrHSS4IEad1DfddINmp/vJXRMB8GA1Ud
IwQYMBaAFIhLdql/p2rQEoErXHFH85iuRTtPMA0GCSqGSIb3DQEBBQUAA4GBADOt
FZDZE6RQcE4jgX2PON6qQSuYxochurhWjv1iKMhdPeoMKHf4pXNMGhRYOnKCjmG6
Bn2Ve1hxhAvZv/eZCHDv4waXpBiYGYvxPDVOGwPzzM6LdJH4m6ZL54bXliM5N3aE
NgjCpxIHEItB0UzJW+Mfj/M3lPWFASSeXtH82z5A
-----END CERTIFICATE-----
